target datalayout = "e-m:e-p270:32:32-p271:32:32-p272:64:64-i64:64-i128:128-f80:128-n8:16:32:64-S128"
target triple = "x86_64-pc-linux-gnu"

%struct._tocEntry = type { ptr, ptr, %struct.CatalogId, i32, i32, i8, ptr, ptr, ptr, ptr, i8, ptr, ptr, ptr, ptr, ptr, ptr, i32, ptr, ptr, ptr, i64, i32, i8, ptr, ptr, i32, ptr, i32, ptr, i32 }
%struct.CatalogId = type { i32, i32 }
%struct.lclTocEntry = type { ptr }

@.str.11 = private unnamed_addr constant [6 x i8] c"BLOBS\00", align 1
@.str.12 = private unnamed_addr constant [13 x i8] c"blobs_%d.toc\00", align 1
@.str.13 = private unnamed_addr constant [7 x i8] c"%d.dat\00", align 1

; Function Attrs: nounwind uwtable
define internal void @_ArchiveEntry(ptr noundef %0, ptr noundef %1) #0 {
  %3 = alloca ptr, align 8
  %4 = alloca ptr, align 8
  %5 = alloca ptr, align 8
  %6 = alloca [1024 x i8], align 16
  store ptr %0, ptr %3, align 8
  store ptr %1, ptr %4, align 8
  call void @llvm.lifetime.start.p0(i64 8, ptr %5) #9
  call void @llvm.lifetime.start.p0(i64 1024, ptr %6) #9
  %7 = call ptr @pg_malloc0(i64 noundef 8)
  store ptr %7, ptr %5, align 8
  %8 = load ptr, ptr %4, align 8
  %9 = getelementptr inbounds nuw %struct._tocEntry, ptr %8, i32 0, i32 12
  %10 = load ptr, ptr %9, align 8
  %11 = call i32 @strcmp(ptr noundef %10, ptr noundef @.str.11) #10
  %12 = icmp eq i32 %11, 0
  br i1 %12, label %13, label %23

13:                                               ; preds = %2
  %14 = getelementptr inbounds [1024 x i8], ptr %6, i64 0, i64 0
  %15 = load ptr, ptr %4, align 8
  %16 = getelementptr inbounds nuw %struct._tocEntry, ptr %15, i32 0, i32 3
  %17 = load i32, ptr %16, align 8
  %18 = call i32 (ptr, i64, ptr, ...) @pg_snprintf(ptr noundef %14, i64 noundef 1024, ptr noundef @.str.12, i32 noundef %17)
  %19 = getelementptr inbounds [1024 x i8], ptr %6, i64 0, i64 0
  %20 = call ptr @pg_strdup(ptr noundef %19)
  %21 = load ptr, ptr %5, align 8
  %22 = getelementptr inbounds nuw %struct.lclTocEntry, ptr %21, i32 0, i32 0
  store ptr %20, ptr %22, align 8
  br label %42

23:                                               ; preds = %2
  %24 = load ptr, ptr %4, align 8
  %25 = getelementptr inbounds nuw %struct._tocEntry, ptr %24, i32 0, i32 18
  %26 = load ptr, ptr %25, align 8
  %27 = icmp ne ptr %26, null
  br i1 %27, label %28, label %38

28:                                               ; preds = %23
  %29 = getelementptr inbounds [1024 x i8], ptr %6, i64 0, i64 0
  %30 = load ptr, ptr %4, align 8
  %31 = getelementptr inbounds nuw %struct._tocEntry, ptr %30, i32 0, i32 3
  %32 = load i32, ptr %31, align 8
  %33 = call i32 (ptr, i64, ptr, ...) @pg_snprintf(ptr noundef %29, i64 noundef 1024, ptr noundef @.str.13, i32 noundef %32)
  %34 = getelementptr inbounds [1024 x i8], ptr %6, i64 0, i64 0
  %35 = call ptr @pg_strdup(ptr noundef %34)
  %36 = load ptr, ptr %5, align 8
  %37 = getelementptr inbounds nuw %struct.lclTocEntry, ptr %36, i32 0, i32 0
  store ptr %35, ptr %37, align 8
  br label %41

38:                                               ; preds = %23
  %39 = load ptr, ptr %5, align 8
  %40 = getelementptr inbounds nuw %struct.lclTocEntry, ptr %39, i32 0, i32 0
  store ptr null, ptr %40, align 8
  br label %41

41:                                               ; preds = %38, %28
  br label %42

42:                                               ; preds = %41, %13
  %43 = load ptr, ptr %5, align 8
  %44 = load ptr, ptr %4, align 8
  %45 = getelementptr inbounds nuw %struct._tocEntry, ptr %44, i32 0, i32 20
  store ptr %43, ptr %45, align 8
  call void @llvm.lifetime.end.p0(i64 1024, ptr %6) #9
  call void @llvm.lifetime.end.p0(i64 8, ptr %5) #9
  ret void
}