; Function Attrs: nounwind uwtable
define internal void @_ArchiveEntry(ptr readnone captures(none) %0, ptr noundef captures(none) initializes((152, 160)) %1) #0 {
  %3 = alloca [1024 x i8], align 16
  call void @llvm.lifetime.start.p0(i64 1024, ptr nonnull %3) #14
  %4 = tail call ptr @pg_malloc0(i64 noundef 8) #14
  %5 = getelementptr inbounds nuw i8, ptr %1, i64 88
  %6 = load ptr, ptr %5, align 8
  %7 = tail call i32 @strcmp(ptr noundef nonnull dereferenceable(1) %6, ptr noundef nonnull dereferenceable(6) @.str.11) #17
  %8 = icmp eq i32 %7, 0
  br i1 %8, label %.sink.split, label %9

9:                                                ; preds = %2
  %10 = getelementptr inbounds nuw i8, ptr %1, i64 136
  %11 = load ptr, ptr %10, align 8
  %.not = icmp eq ptr %11, null
  br i1 %.not, label %16, label %.sink.split

.sink.split:                                      ; preds = %9, %2
  %.str.13.sink = phi ptr [ @.str.12, %2 ], [ @.str.13, %9 ]
  %12 = getelementptr inbounds nuw i8, ptr %1, i64 24
  %13 = load i32, ptr %12, align 8
  %14 = call i32 (ptr, i64, ptr, ...) @pg_snprintf(ptr noundef nonnull %3, i64 noundef 1024, ptr noundef nonnull %.str.13.sink, i32 noundef %13) #14
  %15 = call ptr @pg_strdup(ptr noundef nonnull %3) #14
  br label %16

16:                                               ; preds = %.sink.split, %9
  %.sink = phi ptr [ null, %9 ], [ %15, %.sink.split ]
  store ptr %.sink, ptr %4, align 8
  %17 = getelementptr inbounds nuw i8, ptr %1, i64 152
  store ptr %4, ptr %17, align 8
  call void @llvm.lifetime.end.p0(i64 1024, ptr nonnull %3) #14
  ret void
}